target datalayout = "e-m:e-p270:32:32-p271:32:32-p272:64:64-i64:64-i128:128-f80:128-n8:16:32:64-S128"
target triple = "x86_64-pc-linux-gnu"

%"class.llvm::Register" = type { i32 }
%"class.llvm::MCRegister" = type { i32 }
%"class.llvm::TypeSize" = type { %"class.llvm::details::FixedOrScalableQuantity.base", [7 x i8] }
%"class.llvm::details::FixedOrScalableQuantity.base" = type <{ i64, i8 }>
%"class.llvm::details::FixedOrScalableQuantity" = type <{ i64, i8, [7 x i8] }>
%"struct.llvm::TargetRegisterInfo::RegClassInfo" = type { i32, i32, i32, i32 }
%"class.llvm::TargetRegisterInfo" = type <{ ptr, %"class.llvm::MCRegisterInfo", ptr, ptr, ptr, ptr, ptr, ptr, %"struct.llvm::LaneBitmask", ptr, ptr, i32, [4 x i8] }>
%"class.llvm::MCRegisterInfo" = type { ptr, i32, %"class.llvm::MCRegister", %"class.llvm::MCRegister", ptr, i32, i32, ptr, ptr, ptr, ptr, ptr, ptr, i32, ptr, i32, i32, i32, i32, ptr, ptr, ptr, ptr, %"class.llvm::DenseMap.12", %"class.llvm::DenseMap.12", %"class.std::vector" }
%"class.llvm::DenseMap.12" = type <{ ptr, i32, i32, i32, [4 x i8] }>
%"class.std::vector" = type { %"struct.std::_Vector_base" }
%"struct.std::_Vector_base" = type { %"struct.std::_Vector_base<std::vector<unsigned short>, std::allocator<std::vector<unsigned short>>>::_Vector_impl" }
%"struct.std::_Vector_base<std::vector<unsigned short>, std::allocator<std::vector<unsigned short>>>::_Vector_impl" = type { %"struct.std::_Vector_base<std::vector<unsigned short>, std::allocator<std::vector<unsigned short>>>::_Vector_impl_data" }
%"struct.std::_Vector_base<std::vector<unsigned short>, std::allocator<std::vector<unsigned short>>>::_Vector_impl_data" = type { ptr, ptr, ptr }
%"struct.llvm::LaneBitmask" = type { i64 }
%"class.llvm::TargetRegisterClass" = type { ptr, ptr, ptr, %"struct.llvm::LaneBitmask", i8, i8, i8, i8, i8, ptr, ptr }
%"class.llvm::MCRegisterClass" = type { ptr, ptr, i32, i16, i16, i16, i16, i8, i8, i8 }

; Function Attrs: mustprogress nounwind uwtable
define linkonce_odr hidden void @_ZN4llvm7details23FixedOrScalableQuantityINS_8TypeSizeEmEC2Emb(ptr noundef nonnull align 8 dereferenceable(9) %0, i64 noundef %1, i1 noundef zeroext %2) unnamed_addr #1 comdat align 2 {
  %4 = alloca ptr, align 8
  %5 = alloca i64, align 8
  %6 = alloca i8, align 1
  store ptr %0, ptr %4, align 8
  store i64 %1, ptr %5, align 8
  %7 = zext i1 %2 to i8
  store i8 %7, ptr %6, align 1
  %8 = load ptr, ptr %4, align 8
  %9 = getelementptr inbounds nuw %"class.llvm::details::FixedOrScalableQuantity", ptr %8, i32 0, i32 0
  %10 = load i64, ptr %5, align 8
  store i64 %10, ptr %9, align 8
  %11 = getelementptr inbounds nuw %"class.llvm::details::FixedOrScalableQuantity", ptr %8, i32 0, i32 1
  %12 = load i8, ptr %6, align 1
  %13 = trunc i8 %12 to i1
  %14 = zext i1 %13 to i8
  store i8 %14, ptr %11, align 8
  ret void
}

; Function Attrs: mustprogress nounwind uwtable
define linkonce_odr hidden noundef i32 @_ZNK4llvm15MCRegisterClass5getIDEv(ptr noundef nonnull align 8 dereferenceable(32) %0) #1 comdat align 2 {
  %2 = alloca ptr, align 8
  store ptr %0, ptr %2, align 8
  %3 = load ptr, ptr %2, align 8
  %4 = getelementptr inbounds nuw %"class.llvm::MCRegisterClass", ptr %3, i32 0, i32 5
  %5 = load i16, ptr %4, align 8
  %6 = zext i16 %5 to i32
  ret i32 %6
}

; Function Attrs: mustprogress nounwind uwtable
define linkonce_odr hidden noundef ptr @_ZNK4llvm18TargetRegisterInfo14regclass_beginEv(ptr noundef nonnull align 8 dereferenceable(308) %0) #1 comdat align 2 {
  %2 = alloca ptr, align 8
  store ptr %0, ptr %2, align 8
  %3 = load ptr, ptr %2, align 8
  %4 = getelementptr inbounds nuw %"class.llvm::TargetRegisterInfo", ptr %3, i32 0, i32 6
  %5 = load ptr, ptr %4, align 8
  ret ptr %5
}

; Function Attrs: mustprogress nounwind uwtable
define linkonce_odr hidden noundef ptr @_ZNK4llvm18TargetRegisterInfo12regclass_endEv(ptr noundef nonnull align 8 dereferenceable(308) %0) #1 comdat align 2 {
  %2 = alloca ptr, align 8
  store ptr %0, ptr %2, align 8
  %3 = load ptr, ptr %2, align 8
  %4 = getelementptr inbounds nuw %"class.llvm::TargetRegisterInfo", ptr %3, i32 0, i32 7
  %5 = load ptr, ptr %4, align 8
  ret ptr %5
}

; Function Attrs: mustprogress nounwind uwtable
define linkonce_odr hidden void @_ZN4llvm8TypeSizeC2Emb(ptr noundef nonnull align 8 dereferenceable(9) %0, i64 noundef %1, i1 noundef zeroext %2) unnamed_addr #1 comdat align 2 {
  %4 = alloca ptr, align 8
  %5 = alloca i64, align 8
  %6 = alloca i8, align 1
  store ptr %0, ptr %4, align 8
  store i64 %1, ptr %5, align 8
  %7 = zext i1 %2 to i8
  store i8 %7, ptr %6, align 1
  %8 = load ptr, ptr %4, align 8
  %9 = load i64, ptr %5, align 8
  %10 = load i8, ptr %6, align 1
  %11 = trunc i8 %10 to i1
  call void @_ZN4llvm7details23FixedOrScalableQuantityINS_8TypeSizeEmEC2Emb(ptr noundef nonnull align 8 dereferenceable(9) %8, i64 noundef %9, i1 noundef zeroext %11)
  ret void
}

; Function Attrs: mustprogress nounwind uwtable
define linkonce_odr hidden noundef i32 @_ZNK4llvm19TargetRegisterClass5getIDEv(ptr noundef nonnull align 8 dereferenceable(56) %0) #1 comdat align 2 {
  %2 = alloca ptr, align 8
  store ptr %0, ptr %2, align 8
  %3 = load ptr, ptr %2, align 8
  %4 = getelementptr inbounds nuw %"class.llvm::TargetRegisterClass", ptr %3, i32 0, i32 0
  %5 = load ptr, ptr %4, align 8
  %6 = call noundef i32 @_ZNK4llvm15MCRegisterClass5getIDEv(ptr noundef nonnull align 8 dereferenceable(32) %5)
  ret i32 %6
}

; Function Attrs: mustprogress nounwind uwtable
define linkonce_odr hidden noundef i32 @_ZNK4llvm18TargetRegisterInfo16getNumRegClassesEv(ptr noundef nonnull align 8 dereferenceable(308) %0) #1 comdat align 2 {
  %2 = alloca ptr, align 8
  store ptr %0, ptr %2, align 8
  %3 = load ptr, ptr %2, align 8
  %4 = call noundef ptr @_ZNK4llvm18TargetRegisterInfo12regclass_endEv(ptr noundef nonnull align 8 dereferenceable(308) %3)
  %5 = call noundef ptr @_ZNK4llvm18TargetRegisterInfo14regclass_beginEv(ptr noundef nonnull align 8 dereferenceable(308) %3)
  %6 = ptrtoint ptr %4 to i64
  %7 = ptrtoint ptr %5 to i64
  %8 = sub i64 %6, %7
  %9 = sdiv exact i64 %8, 8
  %10 = trunc i64 %9 to i32
  ret i32 %10
}

; Function Attrs: mustprogress nounwind uwtable
define linkonce_odr hidden noundef zeroext i1 @_ZN4llvm10MCRegister18isPhysicalRegisterEj(i32 noundef %0) #1 comdat align 2 {
  %2 = alloca i32, align 4
  store i32 %0, ptr %2, align 4
  %3 = load i32, ptr %2, align 4
  %4 = icmp ule i32 1, %3
  br i1 %4, label %5, label %8

5:                                                ; preds = %1
  %6 = load i32, ptr %2, align 4
  %7 = icmp ult i32 %6, 1073741824
  br label %8

8:                                                ; preds = %5, %1
  %9 = phi i1 [ false, %1 ], [ %7, %5 ]
  ret i1 %9
}

; Function Attrs: mustprogress nounwind uwtable
define linkonce_odr hidden { i64, i8 } @_ZN4llvm8TypeSize8getFixedEm(i64 noundef %0) #1 comdat align 2 {
  %2 = alloca %"class.llvm::TypeSize", align 8
  %3 = alloca i64, align 8
  store i64 %0, ptr %3, align 8
  %4 = load i64, ptr %3, align 8
  call void @_ZN4llvm8TypeSizeC2Emb(ptr noundef nonnull align 8 dereferenceable(9) %2, i64 noundef %4, i1 noundef zeroext false)
  %5 = load { i64, i8 }, ptr %2, align 8
  ret { i64, i8 } %5
}

; Function Attrs: mustprogress nounwind uwtable
define linkonce_odr hidden noundef nonnull align 4 dereferenceable(16) ptr @_ZNK4llvm18TargetRegisterInfo15getRegClassInfoERKNS_19TargetRegisterClassE(ptr noundef nonnull align 8 dereferenceable(308) %0, ptr noundef nonnull align 8 dereferenceable(56) %1) #1 comdat align 2 {
  %3 = alloca ptr, align 8
  %4 = alloca ptr, align 8
  store ptr %0, ptr %3, align 8
  store ptr %1, ptr %4, align 8
  %5 = load ptr, ptr %3, align 8
  %6 = getelementptr inbounds nuw %"class.llvm::TargetRegisterInfo", ptr %5, i32 0, i32 9
  %7 = load ptr, ptr %6, align 8
  %8 = call noundef i32 @_ZNK4llvm18TargetRegisterInfo16getNumRegClassesEv(ptr noundef nonnull align 8 dereferenceable(308) %5)
  %9 = getelementptr inbounds nuw %"class.llvm::TargetRegisterInfo", ptr %5, i32 0, i32 11
  %10 = load i32, ptr %9, align 8
  %11 = mul i32 %8, %10
  %12 = load ptr, ptr %4, align 8
  %13 = call noundef i32 @_ZNK4llvm19TargetRegisterClass5getIDEv(ptr noundef nonnull align 8 dereferenceable(56) %12)
  %14 = add i32 %11, %13
  %15 = zext i32 %14 to i64
  %16 = getelementptr inbounds %"struct.llvm::TargetRegisterInfo::RegClassInfo", ptr %7, i64 %15
  ret ptr %16
}

; Function Attrs: mustprogress nounwind uwtable
define linkonce_odr hidden noundef zeroext i1 @_ZN4llvm8Register18isPhysicalRegisterEj(i32 noundef %0) #1 comdat align 2 {
  %2 = alloca i32, align 4
  store i32 %0, ptr %2, align 4
  %3 = load i32, ptr %2, align 4
  %4 = call noundef zeroext i1 @_ZN4llvm10MCRegister18isPhysicalRegisterEj(i32 noundef %3)
  ret i1 %4
}

; Function Attrs: mustprogress nounwind uwtable
define linkonce_odr hidden { i64, i8 } @_ZNK4llvm18TargetRegisterInfo16getRegSizeInBitsERKNS_19TargetRegisterClassE(ptr noundef nonnull align 8 dereferenceable(308) %0, ptr noundef nonnull align 8 dereferenceable(56) %1) #1 comdat align 2 {
  %3 = alloca %"class.llvm::TypeSize", align 8
  %4 = alloca ptr, align 8
  %5 = alloca ptr, align 8
  %6 = alloca { i64, i8 }, align 8
  store ptr %0, ptr %4, align 8
  store ptr %1, ptr %5, align 8
  %7 = load ptr, ptr %4, align 8
  %8 = load ptr, ptr %5, align 8
  %9 = call noundef nonnull align 4 dereferenceable(16) ptr @_ZNK4llvm18TargetRegisterInfo15getRegClassInfoERKNS_19TargetRegisterClassE(ptr noundef nonnull align 8 dereferenceable(308) %7, ptr noundef nonnull align 8 dereferenceable(56) %8)
  %10 = getelementptr inbounds nuw %"struct.llvm::TargetRegisterInfo::RegClassInfo", ptr %9, i32 0, i32 0
  %11 = load i32, ptr %10, align 4
  %12 = zext i32 %11 to i64
  %13 = call { i64, i8 } @_ZN4llvm8TypeSize8getFixedEm(i64 noundef %12)
  store { i64, i8 } %13, ptr %6, align 8
  call void @llvm.memcpy.p0.p0.i64(ptr align 8 %3, ptr align 8 %6, i64 9, i1 false)
  %14 = load { i64, i8 }, ptr %3, align 8
  ret { i64, i8 } %14
}

; Function Attrs: mustprogress nounwind uwtable
define linkonce_odr hidden noundef zeroext i1 @_ZNK4llvm8Register10isPhysicalEv(ptr noundef nonnull align 4 dereferenceable(4) %0) #1 comdat align 2 {
  %2 = alloca ptr, align 8
  store ptr %0, ptr %2, align 8
  %3 = load ptr, ptr %2, align 8
  %4 = getelementptr inbounds nuw %"class.llvm::Register", ptr %3, i32 0, i32 0
  %5 = load i32, ptr %4, align 4
  %6 = call noundef zeroext i1 @_ZN4llvm8Register18isPhysicalRegisterEj(i32 noundef %5)
  ret i1 %6
}

; Function Attrs: mustprogress nounwind uwtable
define dso_local { i64, i8 } @_ZNK4llvm16RegisterBankInfo13getSizeInBitsENS_8RegisterERKNS_19MachineRegisterInfoERKNS_18TargetRegisterInfoE(ptr noundef nonnull align 8 dereferenceable(160) %0, i32 %1, ptr noundef nonnull align 8 dereferenceable(512) %2, ptr noundef nonnull align 8 dereferenceable(308) %3) #1 align 2 {
  %5 = alloca %"class.llvm::TypeSize", align 8
  %6 = alloca %"class.llvm::Register", align 4
  %7 = alloca ptr, align 8
  %8 = alloca ptr, align 8
  %9 = alloca ptr, align 8
  %10 = alloca ptr, align 8
  %11 = alloca %"class.llvm::Register", align 4
  %12 = alloca { i64, i8 }, align 8
  %13 = alloca %"class.llvm::Register", align 4
  %14 = alloca { i64, i8 }, align 8
  %15 = getelementptr inbounds nuw %"class.llvm::Register", ptr %6, i32 0, i32 0
  store i32 %1, ptr %15, align 4
  store ptr %0, ptr %7, align 8
  store ptr %2, ptr %8, align 8
  store ptr %3, ptr %9, align 8
  %16 = load ptr, ptr %7, align 8
  %17 = call noundef zeroext i1 @_ZNK4llvm8Register10isPhysicalEv(ptr noundef nonnull align 4 dereferenceable(4) %6)
  br i1 %17, label %18, label %26

18:                                               ; preds = %4
  call void @llvm.memcpy.p0.p0.i64(ptr align 4 %11, ptr align 4 %6, i64 4, i1 false)
  %19 = load ptr, ptr %9, align 8
  %20 = getelementptr inbounds nuw %"class.llvm::Register", ptr %11, i32 0, i32 0
  %21 = load i32, ptr %20, align 4
  %22 = call noundef ptr @_ZNK4llvm16RegisterBankInfo22getMinimalPhysRegClassENS_8RegisterERKNS_18TargetRegisterInfoE(ptr noundef nonnull align 8 dereferenceable(160) %16, i32 %21, ptr noundef nonnull align 8 dereferenceable(308) %19)
  store ptr %22, ptr %10, align 8
  %23 = load ptr, ptr %9, align 8
  %24 = load ptr, ptr %10, align 8
  %25 = call { i64, i8 } @_ZNK4llvm18TargetRegisterInfo16getRegSizeInBitsERKNS_19TargetRegisterClassE(ptr noundef nonnull align 8 dereferenceable(308) %23, ptr noundef nonnull align 8 dereferenceable(56) %24)
  store { i64, i8 } %25, ptr %12, align 8
  call void @llvm.memcpy.p0.p0.i64(ptr align 8 %5, ptr align 8 %12, i64 9, i1 false)
  br label %32

26:                                               ; preds = %4
  %27 = load ptr, ptr %9, align 8
  call void @llvm.memcpy.p0.p0.i64(ptr align 4 %13, ptr align 4 %6, i64 4, i1 false)
  %28 = load ptr, ptr %8, align 8
  %29 = getelementptr inbounds nuw %"class.llvm::Register", ptr %13, i32 0, i32 0
  %30 = load i32, ptr %29, align 4
  %31 = call { i64, i8 } @_ZNK4llvm18TargetRegisterInfo16getRegSizeInBitsENS_8RegisterERKNS_19MachineRegisterInfoE(ptr noundef nonnull align 8 dereferenceable(308) %27, i32 %30, ptr noundef nonnull align 8 dereferenceable(512) %28)
  store { i64, i8 } %31, ptr %14, align 8
  call void @llvm.memcpy.p0.p0.i64(ptr align 8 %5, ptr align 8 %14, i64 9, i1 false)
  br label %32

32:                                               ; preds = %26, %18
  %33 = load { i64, i8 }, ptr %5, align 8
  ret { i64, i8 } %33
}