; Function Attrs: mustprogress nounwind uwtable
define dso_local { i64, i8 } @_ZNK4llvm16RegisterBankInfo13getSizeInBitsENS_8RegisterERKNS_19MachineRegisterInfoERKNS_18TargetRegisterInfoE(ptr noundef nonnull align 8 dereferenceable(160) %0, i32 %1, ptr noundef nonnull align 8 dereferenceable(512) %2, ptr noundef nonnull align 8 dereferenceable(308) %3) local_unnamed_addr #2 align 2 {
  %5 = add i32 %1, -1
  %6 = icmp ult i32 %5, 1073741823
  br i1 %6, label %7, label %32

7:                                                ; preds = %4
  %8 = tail call noundef ptr @_ZNK4llvm16RegisterBankInfo22getMinimalPhysRegClassENS_8RegisterERKNS_18TargetRegisterInfoE(ptr noundef nonnull align 8 dereferenceable(160) %0, i32 %1, ptr noundef nonnull align 8 dereferenceable(308) %3)
  %9 = getelementptr inbounds nuw i8, ptr %3, i64 288
  %10 = load ptr, ptr %9, align 8
  %11 = getelementptr inbounds nuw i8, ptr %3, i64 272
  %12 = load ptr, ptr %11, align 8
  %13 = getelementptr inbounds nuw i8, ptr %3, i64 264
  %14 = load ptr, ptr %13, align 8
  %15 = ptrtoint ptr %12 to i64
  %16 = ptrtoint ptr %14 to i64
  %17 = sub i64 %15, %16
  %18 = lshr exact i64 %17, 3
  %19 = trunc i64 %18 to i32
  %20 = getelementptr inbounds nuw i8, ptr %3, i64 304
  %21 = load i32, ptr %20, align 8
  %22 = mul i32 %21, %19
  %23 = load ptr, ptr %8, align 8
  %24 = getelementptr inbounds nuw i8, ptr %23, i64 24
  %25 = load i16, ptr %24, align 8
  %26 = zext i16 %25 to i32
  %27 = add i32 %22, %26
  %28 = zext i32 %27 to i64
  %29 = getelementptr inbounds %"struct.llvm::TargetRegisterInfo::RegClassInfo", ptr %10, i64 %28
  %30 = load i32, ptr %29, align 4
  %31 = zext i32 %30 to i64
  %.fca.0.insert.i.i = insertvalue { i64, i8 } poison, i64 %31, 0
  %.fca.1.insert.i.i = insertvalue { i64, i8 } %.fca.0.insert.i.i, i8 0, 1
  br label %34

32:                                               ; preds = %4
  %33 = tail call { i64, i8 } @_ZNK4llvm18TargetRegisterInfo16getRegSizeInBitsENS_8RegisterERKNS_19MachineRegisterInfoE(ptr noundef nonnull align 8 dereferenceable(308) %3, i32 %1, ptr noundef nonnull align 8 dereferenceable(512) %2) #14
  br label %34

34:                                               ; preds = %32, %7
  %.pn = phi { i64, i8 } [ %.fca.1.insert.i.i, %7 ], [ %33, %32 ]
  ret { i64, i8 } %.pn
}